Certificate:
    Data:
        Version: 3 (0x2)
        Serial Number: 1 (0x1)
        Signature Algorithm: md5WithRSAEncryption
        Issuer: O=test CA1, OU=simple ca, CN=Globus Test
        Validity
            Not Before: May 11 23:28:14 2005 GMT
            Not After : May 11 23:28:14 2006 GMT
        Subject: O=test CA1, OU=simple ca, OU=site, CN=user1
        Subject Public Key Info:
            Public Key Algorithm: rsaEncryption
            RSA Public Key: (1024 bit)
                Modulus (1024 bit):
                    00:ac:e5:5e:67:99:8f:66:c4:9d:e5:2b:67:dd:f9:
                    9c:b2:c2:45:80:0c:22:53:ce:7a:f2:e3:d0:d6:e9:
                    42:2d:09:c2:13:6d:ab:4e:fc:a4:2c:fb:98:52:fd:
                    bb:5d:f6:43:22:37:b1:b5:97:2d:c8:38:7e:39:bf:
                    be:14:92:2c:5b:1f:36:a1:fd:f3:7d:2e:9f:28:a5:
                    31:3e:27:03:af:44:e9:43:f0:b7:08:ef:df:e6:7e:
                    b1:99:76:67:39:4c:48:62:b1:2e:c6:be:4f:85:bf:
                    0e:0e:16:47:87:f7:76:45:00:ed:55:4d:f8:f2:b2:
                    ff:01:90:62:ef:04:21:65:7b
                Exponent: 65537 (0x10001)
        X509v3 extensions:
            Netscape Cert Type: 
                SSL Client, SSL Server, S/MIME, Object Signing
    Signature Algorithm: md5WithRSAEncryption
        6f:f3:a9:40:97:41:6f:9e:10:65:30:c1:4d:5a:0b:60:7c:7a:
        3f:52:62:95:74:95:bb:32:05:36:d7:00:fe:33:22:ab:18:02:
        53:5d:79:ac:c0:0e:83:35:a0:4f:d1:e2:8e:e9:88:e2:ea:a7:
        ca:6e:cb:c9:d2:64:26:8f:3c:85:b9:31:dc:01:ba:9b:ce:14:
        cf:71:82:bd:c0:66:ce:84:17:89:ce:39:e9:a5:63:f3:f1:5e:
        60:e4:6b:c4:a1:fd:05:b7:ef:45:98:94:b3:cb:ab:60:04:2f:
        79:17:f6:84:30:e6:24:89:7c:92:ec:26:15:a9:58:1c:88:cf:
        5a:6b
-----BEGIN CERTIFICATE-----
MIICDjCCAXegAwIBAgIBATANBgkqhkiG9w0BAQQFADA9MREwDwYDVQQKEwh0ZXN0
IENBMTESMBAGA1UECxMJc2ltcGxlIGNhMRQwEgYDVQQDEwtHbG9idXMgVGVzdDAe
Fw0wNTA1MTEyMzI4MTRaFw0wNjA1MTEyMzI4MTRaMEYxETAPBgNVBAoTCHRlc3Qg
Q0ExMRIwEAYDVQQLEwlzaW1wbGUgY2ExDTALBgNVBAsTBHNpdGUxDjAMBgNVBAMT
BXVzZXIxMIGfMA0GCSqGSIb3DQEBAQUAA4GNADCBiQKBgQCs5V5nmY9mxJ3lK2fd
+ZyywkWADCJTznry49DW6UItCcITbatO/KQs+5hS/btd9kMiN7G1ly3IOH45v74U
kixbHzah/fN9Lp8opTE+JwOvROlD8LcI79/mfrGZdmc5TEhisS7Gvk+Fvw4OFkeH
93ZFAO1VTfjysv8BkGLvBCFlewIDAQABoxUwEzARBglghkgBhvhCAQEEBAMCBPAw
DQYJKoZIhvcNAQEEBQADgYEAb/OpQJdBb54QZTDBTVoLYHx6P1JilXSVuzIFNtcA
/jMiqxgCU115rMAOgzWgT9HijumI4uqnym7LydJkJo88hbkx3AG6m84Uz3GCvcBm
zoQXic456aVj8/FeYORrxKH9BbfvRZiUs8urYAQveRf2hDDmJIl8kuwmFalYHIjP
Wms=
-----END CERTIFICATE-----
