Certificate:
    Data:
        Version: 3 (0x2)
        Serial Number: 1 (0x1)
        Signature Algorithm: md5WithRSAEncryption
        Issuer: O=Test CA2, OU=simple ca, CN=Globus Test
        Validity
            Not Before: May 12 01:50:35 2005 GMT
            Not After : May 12 01:50:35 2006 GMT
        Subject: O=Test CA2, OU=simple ca, OU=site, CN=user1
        Subject Public Key Info:
            Public Key Algorithm: rsaEncryption
            RSA Public Key: (1024 bit)
                Modulus (1024 bit):
                    00:bf:2d:e4:c1:5b:86:4e:09:64:e2:32:c0:9c:28:
                    d4:d3:66:1c:34:16:d7:4e:99:08:db:22:1a:6d:21:
                    9d:d1:af:92:0d:f4:52:85:98:9d:3e:69:86:25:b2:
                    0e:0c:dc:fd:bf:c3:37:89:fa:6d:63:32:40:85:bd:
                    63:e8:98:bd:93:f9:1f:92:9f:07:a1:9b:3e:ed:61:
                    93:2f:4d:c2:fc:78:01:0c:c7:fa:8a:58:c4:3e:ea:
                    71:f2:14:bc:ce:ee:44:5b:ea:8b:d6:ff:96:50:87:
                    3a:d8:7f:43:34:ec:2f:33:a2:c9:8a:19:e7:17:19:
                    86:c0:cf:d6:13:77:d7:5d:33
                Exponent: 65537 (0x10001)
        X509v3 extensions:
            Netscape Cert Type: 
                SSL Client, SSL Server, S/MIME, Object Signing
    Signature Algorithm: md5WithRSAEncryption
        4a:51:1e:5c:78:3a:72:2a:4a:de:c8:b2:4a:a3:70:83:fe:1c:
        34:46:d7:b2:1d:c2:62:af:07:29:e9:4b:4b:ac:c2:ed:c0:9e:
        e9:27:8c:f6:35:ad:e0:02:74:6a:c0:f1:03:fc:2c:e7:a1:ad:
        1d:1f:e1:01:17:3a:69:99:47:aa:95:32:0c:13:14:e5:13:68:
        12:99:f8:0e:c1:7c:d5:31:c0:a3:08:1c:e1:a7:5b:db:91:2e:
        56:b7:fd:6c:a4:b9:8a:2b:53:82:b1:e5:43:22:a3:de:02:a5:
        09:71:19:4a:01:4e:2e:f6:c7:be:ed:c3:47:b4:52:93:58:94:
        05:1b
-----BEGIN CERTIFICATE-----
MIICDjCCAXegAwIBAgIBATANBgkqhkiG9w0BAQQFADA9MREwDwYDVQQKEwhUZXN0
IENBMjESMBAGA1UECxMJc2ltcGxlIGNhMRQwEgYDVQQDEwtHbG9idXMgVGVzdDAe
Fw0wNTA1MTIwMTUwMzVaFw0wNjA1MTIwMTUwMzVaMEYxETAPBgNVBAoTCFRlc3Qg
Q0EyMRIwEAYDVQQLEwlzaW1wbGUgY2ExDTALBgNVBAsTBHNpdGUxDjAMBgNVBAMT
BXVzZXIxMIGfMA0GCSqGSIb3DQEBAQUAA4GNADCBiQKBgQC/LeTBW4ZOCWTiMsCc
KNTTZhw0FtdOmQjbIhptIZ3Rr5IN9FKFmJ0+aYYlsg4M3P2/wzeJ+m1jMkCFvWPo
mL2T+R+Snwehmz7tYZMvTcL8eAEMx/qKWMQ+6nHyFLzO7kRb6ovW/5ZQhzrYf0M0
7C8zosmKGecXGYbAz9YTd9ddMwIDAQABoxUwEzARBglghkgBhvhCAQEEBAMCBPAw
DQYJKoZIhvcNAQEEBQADgYEASlEeXHg6cipK3siySqNwg/4cNEbXsh3CYq8HKelL
S6zC7cCe6SeM9jWt4AJ0asDxA/ws56GtHR/hARc6aZlHqpUyDBMU5RNoEpn4DsF8
1THAowgc4adb25EuVrf9bKS5iitTgrHlQyKj3gKlCXEZSgFOLvbHvu3DR7RSk1iU
BRs=
-----END CERTIFICATE-----
