Certificate:
    Data:
        Version: 3 (0x2)
        Serial Number: 2 (0x2)
        Signature Algorithm: md5WithRSAEncryption
        Issuer: O=test CA1, OU=simple ca, CN=Globus Test
        Validity
            Not Before: May 11 23:30:50 2005 GMT
            Not After : May 11 23:30:50 2006 GMT
        Subject: O=test CA1, OU=simple ca, OU=site, CN=user2
        Subject Public Key Info:
            Public Key Algorithm: rsaEncryption
            RSA Public Key: (1024 bit)
                Modulus (1024 bit):
                    00:c1:7b:f7:91:0c:0a:c5:e1:22:91:e7:8c:f7:c3:
                    65:bb:05:de:89:07:55:1c:36:d6:8b:39:4e:76:0e:
                    a4:8e:ed:01:27:fb:67:64:98:92:e8:f1:d4:98:5d:
                    ca:f4:c5:22:c4:ce:5c:18:55:fb:dd:4c:b1:c0:4c:
                    98:1c:ec:8e:16:6c:b8:b1:0b:e7:0f:87:f8:01:48:
                    12:ec:d2:6d:77:e2:8e:9c:de:ba:63:1f:ab:1a:86:
                    9d:47:6b:4f:84:fd:9f:95:9e:59:40:6d:9e:44:98:
                    fa:02:69:01:4e:1d:1e:b9:19:6a:29:98:8f:2e:fd:
                    04:1a:6b:cb:a2:72:ee:50:4f
                Exponent: 65537 (0x10001)
        X509v3 extensions:
            Netscape Cert Type: 
                SSL Client, SSL Server, S/MIME, Object Signing
    Signature Algorithm: md5WithRSAEncryption
        3c:17:15:12:89:4e:bc:52:1b:7e:4b:56:f7:21:15:b9:93:5b:
        94:a8:28:1e:fa:9d:5f:2d:8b:2f:80:cf:46:5f:26:d9:fa:92:
        9b:78:0b:2f:63:c1:43:48:bf:84:c2:7c:d5:1c:1f:8e:5d:b6:
        c3:e6:d6:3c:e2:fd:29:b1:80:5f:38:f7:ef:0a:0c:26:c2:7e:
        4e:6a:b2:63:c1:00:e7:43:30:be:45:3a:48:69:23:08:3d:40:
        64:a6:02:5d:45:35:23:aa:14:28:81:e1:fd:90:58:ce:b8:03:
        30:c5:52:10:6c:51:d6:63:b2:21:04:3e:40:b2:99:18:ad:d2:
        d7:34
-----BEGIN CERTIFICATE-----
MIICDjCCAXegAwIBAgIBAjANBgkqhkiG9w0BAQQFADA9MREwDwYDVQQKEwh0ZXN0
IENBMTESMBAGA1UECxMJc2ltcGxlIGNhMRQwEgYDVQQDEwtHbG9idXMgVGVzdDAe
Fw0wNTA1MTEyMzMwNTBaFw0wNjA1MTEyMzMwNTBaMEYxETAPBgNVBAoTCHRlc3Qg
Q0ExMRIwEAYDVQQLEwlzaW1wbGUgY2ExDTALBgNVBAsTBHNpdGUxDjAMBgNVBAMT
BXVzZXIyMIGfMA0GCSqGSIb3DQEBAQUAA4GNADCBiQKBgQDBe/eRDArF4SKR54z3
w2W7Bd6JB1UcNtaLOU52DqSO7QEn+2dkmJLo8dSYXcr0xSLEzlwYVfvdTLHATJgc
7I4WbLixC+cPh/gBSBLs0m134o6c3rpjH6sahp1Ha0+E/Z+VnllAbZ5EmPoCaQFO
HR65GWopmI8u/QQaa8uicu5QTwIDAQABoxUwEzARBglghkgBhvhCAQEEBAMCBPAw
DQYJKoZIhvcNAQEEBQADgYEAPBcVEolOvFIbfktW9yEVuZNblKgoHvqdXy2LL4DP
Rl8m2fqSm3gLL2PBQ0i/hMJ81Rwfjl22w+bWPOL9KbGAXzj37woMJsJ+TmqyY8EA
50MwvkU6SGkjCD1AZKYCXUU1I6oUKIHh/ZBYzrgDMMVSEGxR1mOyIQQ+QLKZGK3S
1zQ=
-----END CERTIFICATE-----
