Certificate:
    Data:
        Version: 3 (0x2)
        Serial Number: 3 (0x3)
        Signature Algorithm: md5WithRSAEncryption
        Issuer: O=Test CA2, OU=simple ca, CN=Globus Test
        Validity
            Not Before: May 12 02:33:41 2005 GMT
            Not After : May 12 02:33:41 2006 GMT
        Subject: O=Test CA2, OU=simple ca, OU=site, CN=user3
        Subject Public Key Info:
            Public Key Algorithm: rsaEncryption
            RSA Public Key: (1024 bit)
                Modulus (1024 bit):
                    00:c6:03:72:36:6c:09:1d:8c:42:25:95:d0:c7:2d:
                    92:05:0a:39:d1:f7:0a:06:d3:c8:f2:80:d7:8c:5f:
                    8e:d4:60:d6:2d:7c:47:b2:ea:35:65:13:b6:9d:f2:
                    17:4e:d9:50:4e:e1:8b:17:f6:7f:39:78:b6:8f:dc:
                    b5:e8:40:52:f1:92:7e:53:b6:ab:35:4b:52:4f:cf:
                    8e:28:3c:9a:e4:f0:29:93:a9:b8:89:12:22:e6:08:
                    47:cc:0f:3a:35:6f:a7:0b:ef:c9:7e:3d:0e:02:cd:
                    c9:63:b6:ac:b6:87:09:2d:6b:a4:93:c2:cb:05:19:
                    b7:9a:52:3b:97:94:97:c4:21
                Exponent: 65537 (0x10001)
        X509v3 extensions:
            Netscape Cert Type: 
                SSL Client, SSL Server, S/MIME, Object Signing
    Signature Algorithm: md5WithRSAEncryption
        ab:ce:b3:57:1b:84:86:ee:fb:96:ff:a3:42:53:69:d0:87:22:
        8d:5d:ab:d0:7b:fb:4b:16:53:e7:ea:a4:9b:da:34:b5:1c:8a:
        93:34:d4:e3:95:9f:9f:12:fa:45:87:9d:fd:52:b0:1d:69:5e:
        1e:ae:29:f9:50:8e:42:49:a6:23:c8:c8:6f:2a:56:cb:94:ff:
        ad:bb:f1:24:ae:bf:0d:04:6d:0d:c0:53:2d:83:47:85:f7:18:
        1a:48:c5:60:4c:81:89:fb:66:3e:9f:6a:14:e0:c3:63:6c:21:
        6a:91:b1:16:1f:88:32:22:01:02:36:6b:d9:6b:69:0f:d2:e2:
        26:64
-----BEGIN CERTIFICATE-----
MIICDjCCAXegAwIBAgIBAzANBgkqhkiG9w0BAQQFADA9MREwDwYDVQQKEwhUZXN0
IENBMjESMBAGA1UECxMJc2ltcGxlIGNhMRQwEgYDVQQDEwtHbG9idXMgVGVzdDAe
Fw0wNTA1MTIwMjMzNDFaFw0wNjA1MTIwMjMzNDFaMEYxETAPBgNVBAoTCFRlc3Qg
Q0EyMRIwEAYDVQQLEwlzaW1wbGUgY2ExDTALBgNVBAsTBHNpdGUxDjAMBgNVBAMT
BXVzZXIzMIGfMA0GCSqGSIb3DQEBAQUAA4GNADCBiQKBgQDGA3I2bAkdjEIlldDH
LZIFCjnR9woG08jygNeMX47UYNYtfEey6jVlE7ad8hdO2VBO4YsX9n85eLaP3LXo
QFLxkn5Ttqs1S1JPz44oPJrk8CmTqbiJEiLmCEfMDzo1b6cL78l+PQ4Czcljtqy2
hwkta6STwssFGbeaUjuXlJfEIQIDAQABoxUwEzARBglghkgBhvhCAQEEBAMCBPAw
DQYJKoZIhvcNAQEEBQADgYEAq86zVxuEhu77lv+jQlNp0IcijV2r0Hv7SxZT5+qk
m9o0tRyKkzTU45WfnxL6RYed/VKwHWleHq4p+VCOQkmmI8jIbypWy5T/rbvxJK6/
DQRtDcBTLYNHhfcYGkjFYEyBiftmPp9qFODDY2whapGxFh+IMiIBAjZr2WtpD9Li
JmQ=
-----END CERTIFICATE-----
