Certificate:
    Data:
        Version: 3 (0x2)
        Serial Number: 2 (0x2)
        Signature Algorithm: md5WithRSAEncryption
        Issuer: O=Test CA2, OU=simple ca, CN=Globus Test
        Validity
            Not Before: May 12 02:31:03 2005 GMT
            Not After : May 12 02:31:03 2006 GMT
        Subject: O=Test CA2, OU=simple ca, OU=site, CN=user2
        Subject Public Key Info:
            Public Key Algorithm: rsaEncryption
            RSA Public Key: (1024 bit)
                Modulus (1024 bit):
                    00:ba:d1:ff:c6:8b:9c:97:04:fe:2c:54:f7:73:f1:
                    8b:8c:13:35:55:1e:5f:f7:64:7a:e1:57:87:f0:c1:
                    8e:56:4f:d1:19:8f:6c:55:a1:a2:50:4e:e6:02:5d:
                    65:51:2f:f2:9e:78:c5:c0:4f:3c:5d:d8:21:7d:9d:
                    a9:b7:9c:05:e1:0e:f2:91:4f:e2:5e:da:16:a2:76:
                    19:2f:91:c0:bf:0a:19:f7:70:6e:a4:06:d3:a0:96:
                    09:94:48:7f:c9:1f:7c:05:9b:c5:2f:3a:8b:1e:62:
                    87:bb:4d:a0:64:06:c3:c7:93:cc:69:3c:b5:38:4c:
                    61:6f:ef:0b:3f:b3:e1:a8:c5
                Exponent: 65537 (0x10001)
        X509v3 extensions:
            Netscape Cert Type: 
                SSL Client, SSL Server, S/MIME, Object Signing
    Signature Algorithm: md5WithRSAEncryption
        a8:bf:7d:1e:6b:e6:ea:bc:1b:1a:6c:81:c5:5c:01:c3:be:b1:
        be:55:af:a6:43:df:bb:08:4a:1f:0e:60:77:0f:bc:c0:b5:5e:
        d2:10:a9:9d:e1:d7:5d:ad:53:00:ea:2f:3d:92:b6:83:81:dc:
        8d:5e:ca:66:13:25:06:4b:ee:a7:cb:35:1e:73:b1:47:3c:82:
        9e:10:fa:21:e2:75:e0:16:13:6a:a1:5a:50:1b:ea:24:c9:a9:
        da:6d:1d:58:8e:41:42:43:dc:9a:a4:f9:83:c9:9a:3d:50:d7:
        bb:4a:01:43:7c:d6:95:88:28:1c:8d:e8:f2:79:a4:de:aa:50:
        21:b1
-----BEGIN CERTIFICATE-----
MIICDjCCAXegAwIBAgIBAjANBgkqhkiG9w0BAQQFADA9MREwDwYDVQQKEwhUZXN0
IENBMjESMBAGA1UECxMJc2ltcGxlIGNhMRQwEgYDVQQDEwtHbG9idXMgVGVzdDAe
Fw0wNTA1MTIwMjMxMDNaFw0wNjA1MTIwMjMxMDNaMEYxETAPBgNVBAoTCFRlc3Qg
Q0EyMRIwEAYDVQQLEwlzaW1wbGUgY2ExDTALBgNVBAsTBHNpdGUxDjAMBgNVBAMT
BXVzZXIyMIGfMA0GCSqGSIb3DQEBAQUAA4GNADCBiQKBgQC60f/Gi5yXBP4sVPdz
8YuMEzVVHl/3ZHrhV4fwwY5WT9EZj2xVoaJQTuYCXWVRL/KeeMXATzxd2CF9nam3
nAXhDvKRT+Je2haidhkvkcC/Chn3cG6kBtOglgmUSH/JH3wFm8UvOoseYoe7TaBk
BsPHk8xpPLU4TGFv7ws/s+GoxQIDAQABoxUwEzARBglghkgBhvhCAQEEBAMCBPAw
DQYJKoZIhvcNAQEEBQADgYEAqL99Hmvm6rwbGmyBxVwBw76xvlWvpkPfuwhKHw5g
dw+8wLVe0hCpneHXXa1TAOovPZK2g4HcjV7KZhMlBkvup8s1HnOxRzyCnhD6IeJ1
4BYTaqFaUBvqJMmp2m0dWI5BQkPcmqT5g8maPVDXu0oBQ3zWlYgoHI3o8nmk3qpQ
IbE=
-----END CERTIFICATE-----
